; Function Attrs: mustprogress nofree nounwind willreturn memory(argmem: read) uwtable
define dso_local zeroext i1 @Curl_safecmp(ptr noundef readonly %0, ptr noundef readonly %1) local_unnamed_addr #3 {
  %3 = icmp ne ptr %0, null
  %4 = icmp ne ptr %1, null
  %or.cond = and i1 %3, %4
  br i1 %or.cond, label %5, label %7

5:                                                ; preds = %2
  %6 = tail call i32 @strcmp(ptr noundef nonnull dereferenceable(1) %0, ptr noundef nonnull dereferenceable(1) %1) #5
  %.not = icmp eq i32 %6, 0
  br label %9

7:                                                ; preds = %2
  %.demorgan = or i1 %3, %4
  %8 = xor i1 %.demorgan, true
  br label %9

9:                                                ; preds = %7, %5
  %.0 = phi i1 [ %.not, %5 ], [ %8, %7 ]
  ret i1 %.0
}